target datalayout = "e-m:e-p270:32:32-p271:32:32-p272:64:64-i64:64-i128:128-f80:128-n8:16:32:64-S128"
target triple = "x86_64-pc-linux-gnu"

%struct.VP8EncIterator = type { i32, i32, ptr, ptr, ptr, ptr, ptr, ptr, ptr, ptr, ptr, [37 x i8], ptr, i32, [9 x i32], [9 x i32], [4 x [3 x i64]], i64, i64, ptr, i32, i32, i32, i32, [2 x [2 x i8]], ptr, ptr, ptr, ptr, ptr, ptr, [88 x i8], [3359 x i8] }
%struct.VP8Encoder = type { ptr, ptr, %struct.VP8EncFilterHeader, %struct.VP8EncSegmentHeader, i32, i32, i32, i32, i32, %struct.VP8BitWriter, [8 x %struct.VP8BitWriter], %struct.VP8TBuffer, i32, i32, ptr, i32, %struct.WebPWorker, [4 x %struct.VP8SegmentInfo], i32, i32, i32, i32, i32, i32, i32, i32, %struct.VP8EncProba, [4 x i64], i64, i32, [3 x [4 x i32]], [3 x i32], i32, i32, i32, i32, i32, i32, i32, ptr, ptr, ptr, ptr, ptr, ptr, ptr }
%struct.VP8EncFilterHeader = type { i32, i32, i32, i32 }
%struct.VP8EncSegmentHeader = type { i32, i32, i32 }
%struct.VP8BitWriter = type { i32, i32, i32, i32, ptr, i64, i64, i32 }
%struct.VP8TBuffer = type { ptr, ptr, ptr, i32, i32, i32 }
%struct.WebPWorker = type { ptr, i32, ptr, ptr, ptr, i32 }
%struct.VP8SegmentInfo = type { %struct.VP8Matrix, %struct.VP8Matrix, %struct.VP8Matrix, i32, i32, i32, i32, i32, i32, i32, i32, i32, i32, i32, i32, i32, i32, i32, i64 }
%struct.VP8Matrix = type { [16 x i16], [16 x i16], [16 x i32], [16 x i32], [16 x i16] }
%struct.VP8EncProba = type { [3 x i8], i8, [4 x [8 x [3 x [11 x i8]]]], [4 x [8 x [3 x [11 x i32]]]], [4 x [8 x [3 x [68 x i16]]]], [4 x [16 x [3 x ptr]]], i32, i32, i32 }
%struct.WebPPicture = type { i32, i32, i32, i32, ptr, ptr, ptr, i32, i32, ptr, i32, [2 x i32], ptr, i32, [3 x i32], ptr, ptr, i32, ptr, ptr, i32, ptr, ptr, [3 x i32], ptr, ptr, [8 x i32], ptr, ptr, [2 x ptr] }
%struct.WebPConfig = type { i32, float, i32, i32, i32, float, i32, i32, i32, i32, i32, i32, i32, i32, i32, i32, i32, i32, i32, i32, i32, i32, i32, i32, i32, i32, i32, i32, i32 }

; Function Attrs: nounwind uwtable
define internal void @ExportBlock(ptr noundef %0, ptr noundef %1, i32 noundef %2, i32 noundef %3, i32 noundef %4) #0 {
  %6 = alloca ptr, align 8
  %7 = alloca ptr, align 8
  %8 = alloca i32, align 4
  %9 = alloca i32, align 4
  %10 = alloca i32, align 4
  store ptr %0, ptr %6, align 8, !tbaa !68
  store ptr %1, ptr %7, align 8, !tbaa !68
  store i32 %2, ptr %8, align 4, !tbaa !7
  store i32 %3, ptr %9, align 4, !tbaa !7
  store i32 %4, ptr %10, align 4, !tbaa !7
  br label %11

11:                                               ; preds = %15, %5
  %12 = load i32, ptr %10, align 4, !tbaa !7
  %13 = add nsw i32 %12, -1
  store i32 %13, ptr %10, align 4, !tbaa !7
  %14 = icmp sgt i32 %12, 0
  br i1 %14, label %15, label %26

15:                                               ; preds = %11
  %16 = load ptr, ptr %7, align 8, !tbaa !68
  %17 = load ptr, ptr %6, align 8, !tbaa !68
  %18 = load i32, ptr %9, align 4, !tbaa !7
  %19 = sext i32 %18 to i64
  call void @llvm.memcpy.p0.p0.i64(ptr align 1 %16, ptr align 1 %17, i64 %19, i1 false)
  %20 = load i32, ptr %8, align 4, !tbaa !7
  %21 = load ptr, ptr %7, align 8, !tbaa !68
  %22 = sext i32 %20 to i64
  %23 = getelementptr inbounds i8, ptr %21, i64 %22
  store ptr %23, ptr %7, align 8, !tbaa !68
  %24 = load ptr, ptr %6, align 8, !tbaa !68
  %25 = getelementptr inbounds i8, ptr %24, i64 32
  store ptr %25, ptr %6, align 8, !tbaa !68
  br label %11, !llvm.loop !86

26:                                               ; preds = %11
  ret void
}

; Function Attrs: nounwind uwtable
define hidden void @VP8IteratorExport(ptr noundef %0) #0 {
  %2 = alloca ptr, align 8
  %3 = alloca ptr, align 8
  %4 = alloca i32, align 4
  %5 = alloca i32, align 4
  %6 = alloca ptr, align 8
  %7 = alloca ptr, align 8
  %8 = alloca ptr, align 8
  %9 = alloca ptr, align 8
  %10 = alloca ptr, align 8
  %11 = alloca ptr, align 8
  %12 = alloca ptr, align 8
  %13 = alloca i32, align 4
  %14 = alloca i32, align 4
  %15 = alloca i32, align 4
  %16 = alloca i32, align 4
  store ptr %0, ptr %2, align 8, !tbaa !3
  call void @llvm.lifetime.start.p0(i64 8, ptr %3) #6
  %17 = load ptr, ptr %2, align 8, !tbaa !3
  %18 = getelementptr inbounds nuw %struct.VP8EncIterator, ptr %17, i32 0, i32 6
  %19 = load ptr, ptr %18, align 8, !tbaa !9
  store ptr %19, ptr %3, align 8, !tbaa !17
  %20 = load ptr, ptr %3, align 8, !tbaa !17
  %21 = getelementptr inbounds nuw %struct.VP8Encoder, ptr %20, i32 0, i32 0
  %22 = load ptr, ptr %21, align 8, !tbaa !82
  %23 = getelementptr inbounds nuw %struct.WebPConfig, ptr %22, i32 0, i32 16
  %24 = load i32, ptr %23, align 4, !tbaa !83
  %25 = icmp ne i32 %24, 0
  br i1 %25, label %26, label %134

26:                                               ; preds = %1
  call void @llvm.lifetime.start.p0(i64 4, ptr %4) #6
  %27 = load ptr, ptr %2, align 8, !tbaa !3
  %28 = getelementptr inbounds nuw %struct.VP8EncIterator, ptr %27, i32 0, i32 0
  %29 = load i32, ptr %28, align 8, !tbaa !18
  store i32 %29, ptr %4, align 4, !tbaa !7
  call void @llvm.lifetime.start.p0(i64 4, ptr %5) #6
  %30 = load ptr, ptr %2, align 8, !tbaa !3
  %31 = getelementptr inbounds nuw %struct.VP8EncIterator, ptr %30, i32 0, i32 1
  %32 = load i32, ptr %31, align 4, !tbaa !19
  store i32 %32, ptr %5, align 4, !tbaa !7
  call void @llvm.lifetime.start.p0(i64 8, ptr %6) #6
  %33 = load ptr, ptr %2, align 8, !tbaa !3
  %34 = getelementptr inbounds nuw %struct.VP8EncIterator, ptr %33, i32 0, i32 3
  %35 = load ptr, ptr %34, align 8, !tbaa !54
  %36 = getelementptr inbounds i8, ptr %35, i64 0
  store ptr %36, ptr %6, align 8, !tbaa !68
  call void @llvm.lifetime.start.p0(i64 8, ptr %7) #6
  %37 = load ptr, ptr %2, align 8, !tbaa !3
  %38 = getelementptr inbounds nuw %struct.VP8EncIterator, ptr %37, i32 0, i32 3
  %39 = load ptr, ptr %38, align 8, !tbaa !54
  %40 = getelementptr inbounds i8, ptr %39, i64 16
  store ptr %40, ptr %7, align 8, !tbaa !68
  call void @llvm.lifetime.start.p0(i64 8, ptr %8) #6
  %41 = load ptr, ptr %2, align 8, !tbaa !3
  %42 = getelementptr inbounds nuw %struct.VP8EncIterator, ptr %41, i32 0, i32 3
  %43 = load ptr, ptr %42, align 8, !tbaa !54
  %44 = getelementptr inbounds i8, ptr %43, i64 24
  store ptr %44, ptr %8, align 8, !tbaa !68
  call void @llvm.lifetime.start.p0(i64 8, ptr %9) #6
  %45 = load ptr, ptr %3, align 8, !tbaa !17
  %46 = getelementptr inbounds nuw %struct.VP8Encoder, ptr %45, i32 0, i32 1
  %47 = load ptr, ptr %46, align 8, !tbaa !64
  store ptr %47, ptr %9, align 8, !tbaa !69
  call void @llvm.lifetime.start.p0(i64 8, ptr %10) #6
  %48 = load ptr, ptr %9, align 8, !tbaa !69
  %49 = getelementptr inbounds nuw %struct.WebPPicture, ptr %48, i32 0, i32 4
  %50 = load ptr, ptr %49, align 8, !tbaa !70
  %51 = load i32, ptr %5, align 4, !tbaa !7
  %52 = load ptr, ptr %9, align 8, !tbaa !69
  %53 = getelementptr inbounds nuw %struct.WebPPicture, ptr %52, i32 0, i32 7
  %54 = load i32, ptr %53, align 8, !tbaa !71
  %55 = mul nsw i32 %51, %54
  %56 = load i32, ptr %4, align 4, !tbaa !7
  %57 = add nsw i32 %55, %56
  %58 = mul nsw i32 %57, 16
  %59 = sext i32 %58 to i64
  %60 = getelementptr inbounds i8, ptr %50, i64 %59
  store ptr %60, ptr %10, align 8, !tbaa !68
  call void @llvm.lifetime.start.p0(i64 8, ptr %11) #6
  %61 = load ptr, ptr %9, align 8, !tbaa !69
  %62 = getelementptr inbounds nuw %struct.WebPPicture, ptr %61, i32 0, i32 5
  %63 = load ptr, ptr %62, align 8, !tbaa !72
  %64 = load i32, ptr %5, align 4, !tbaa !7
  %65 = load ptr, ptr %9, align 8, !tbaa !69
  %66 = getelementptr inbounds nuw %struct.WebPPicture, ptr %65, i32 0, i32 8
  %67 = load i32, ptr %66, align 4, !tbaa !73
  %68 = mul nsw i32 %64, %67
  %69 = load i32, ptr %4, align 4, !tbaa !7
  %70 = add nsw i32 %68, %69
  %71 = mul nsw i32 %70, 8
  %72 = sext i32 %71 to i64
  %73 = getelementptr inbounds i8, ptr %63, i64 %72
  store ptr %73, ptr %11, align 8, !tbaa !68
  call void @llvm.lifetime.start.p0(i64 8, ptr %12) #6
  %74 = load ptr, ptr %9, align 8, !tbaa !69
  %75 = getelementptr inbounds nuw %struct.WebPPicture, ptr %74, i32 0, i32 6
  %76 = load ptr, ptr %75, align 8, !tbaa !74
  %77 = load i32, ptr %5, align 4, !tbaa !7
  %78 = load ptr, ptr %9, align 8, !tbaa !69
  %79 = getelementptr inbounds nuw %struct.WebPPicture, ptr %78, i32 0, i32 8
  %80 = load i32, ptr %79, align 4, !tbaa !73
  %81 = mul nsw i32 %77, %80
  %82 = load i32, ptr %4, align 4, !tbaa !7
  %83 = add nsw i32 %81, %82
  %84 = mul nsw i32 %83, 8
  %85 = sext i32 %84 to i64
  %86 = getelementptr inbounds i8, ptr %76, i64 %85
  store ptr %86, ptr %12, align 8, !tbaa !68
  call void @llvm.lifetime.start.p0(i64 4, ptr %13) #6
  %87 = load ptr, ptr %9, align 8, !tbaa !69
  %88 = getelementptr inbounds nuw %struct.WebPPicture, ptr %87, i32 0, i32 2
  %89 = load i32, ptr %88, align 8, !tbaa !75
  %90 = load i32, ptr %4, align 4, !tbaa !7
  %91 = mul nsw i32 %90, 16
  %92 = sub nsw i32 %89, %91
  store i32 %92, ptr %13, align 4, !tbaa !7
  call void @llvm.lifetime.start.p0(i64 4, ptr %14) #6
  %93 = load ptr, ptr %9, align 8, !tbaa !69
  %94 = getelementptr inbounds nuw %struct.WebPPicture, ptr %93, i32 0, i32 3
  %95 = load i32, ptr %94, align 4, !tbaa !76
  %96 = load i32, ptr %5, align 4, !tbaa !7
  %97 = mul nsw i32 %96, 16
  %98 = sub nsw i32 %95, %97
  store i32 %98, ptr %14, align 4, !tbaa !7
  %99 = load i32, ptr %13, align 4, !tbaa !7
  %100 = icmp sgt i32 %99, 16
  br i1 %100, label %101, label %102

101:                                              ; preds = %26
  store i32 16, ptr %13, align 4, !tbaa !7
  br label %102

102:                                              ; preds = %101, %26
  %103 = load i32, ptr %14, align 4, !tbaa !7
  %104 = icmp sgt i32 %103, 16
  br i1 %104, label %105, label %106

105:                                              ; preds = %102
  store i32 16, ptr %14, align 4, !tbaa !7
  br label %106

106:                                              ; preds = %105, %102
  %107 = load ptr, ptr %6, align 8, !tbaa !68
  %108 = load ptr, ptr %10, align 8, !tbaa !68
  %109 = load ptr, ptr %9, align 8, !tbaa !69
  %110 = getelementptr inbounds nuw %struct.WebPPicture, ptr %109, i32 0, i32 7
  %111 = load i32, ptr %110, align 8, !tbaa !71
  %112 = load i32, ptr %13, align 4, !tbaa !7
  %113 = load i32, ptr %14, align 4, !tbaa !7
  call void @ExportBlock(ptr noundef %107, ptr noundef %108, i32 noundef %111, i32 noundef %112, i32 noundef %113)
  call void @llvm.lifetime.start.p0(i64 4, ptr %15) #6
  %114 = load i32, ptr %13, align 4, !tbaa !7
  %115 = add nsw i32 %114, 1
  %116 = ashr i32 %115, 1
  store i32 %116, ptr %15, align 4, !tbaa !7
  call void @llvm.lifetime.start.p0(i64 4, ptr %16) #6
  %117 = load i32, ptr %14, align 4, !tbaa !7
  %118 = add nsw i32 %117, 1
  %119 = ashr i32 %118, 1
  store i32 %119, ptr %16, align 4, !tbaa !7
  %120 = load ptr, ptr %7, align 8, !tbaa !68
  %121 = load ptr, ptr %11, align 8, !tbaa !68
  %122 = load ptr, ptr %9, align 8, !tbaa !69
  %123 = getelementptr inbounds nuw %struct.WebPPicture, ptr %122, i32 0, i32 8
  %124 = load i32, ptr %123, align 4, !tbaa !73
  %125 = load i32, ptr %15, align 4, !tbaa !7
  %126 = load i32, ptr %16, align 4, !tbaa !7
  call void @ExportBlock(ptr noundef %120, ptr noundef %121, i32 noundef %124, i32 noundef %125, i32 noundef %126)
  %127 = load ptr, ptr %8, align 8, !tbaa !68
  %128 = load ptr, ptr %12, align 8, !tbaa !68
  %129 = load ptr, ptr %9, align 8, !tbaa !69
  %130 = getelementptr inbounds nuw %struct.WebPPicture, ptr %129, i32 0, i32 8
  %131 = load i32, ptr %130, align 4, !tbaa !73
  %132 = load i32, ptr %15, align 4, !tbaa !7
  %133 = load i32, ptr %16, align 4, !tbaa !7
  call void @ExportBlock(ptr noundef %127, ptr noundef %128, i32 noundef %131, i32 noundef %132, i32 noundef %133)
  call void @llvm.lifetime.end.p0(i64 4, ptr %16) #6
  call void @llvm.lifetime.end.p0(i64 4, ptr %15) #6
  call void @llvm.lifetime.end.p0(i64 4, ptr %14) #6
  call void @llvm.lifetime.end.p0(i64 4, ptr %13) #6
  call void @llvm.lifetime.end.p0(i64 8, ptr %12) #6
  call void @llvm.lifetime.end.p0(i64 8, ptr %11) #6
  call void @llvm.lifetime.end.p0(i64 8, ptr %10) #6
  call void @llvm.lifetime.end.p0(i64 8, ptr %9) #6
  call void @llvm.lifetime.end.p0(i64 8, ptr %8) #6
  call void @llvm.lifetime.end.p0(i64 8, ptr %7) #6
  call void @llvm.lifetime.end.p0(i64 8, ptr %6) #6
  call void @llvm.lifetime.end.p0(i64 4, ptr %5) #6
  call void @llvm.lifetime.end.p0(i64 4, ptr %4) #6
  br label %134

134:                                              ; preds = %106, %1
  call void @llvm.lifetime.end.p0(i64 8, ptr %3) #6
  ret void
}