; Function Attrs: nofree norecurse nosync nounwind memory(readwrite, inaccessiblemem: none) uwtable
define hidden void @VP8IteratorExport(ptr noundef readonly captures(none) %0) local_unnamed_addr #5 {
  %2 = getelementptr inbounds nuw i8, ptr %0, i64 40
  %3 = load ptr, ptr %2, align 8, !tbaa !3
  %4 = load ptr, ptr %3, align 8, !tbaa !78
  %5 = getelementptr inbounds nuw i8, ptr %4, i64 64
  %6 = load i32, ptr %5, align 4, !tbaa !79
  %.not = icmp eq i32 %6, 0
  br i1 %.not, label %ExportBlock.exit52, label %7

7:                                                ; preds = %1
  %8 = load i32, ptr %0, align 8, !tbaa !15
  %9 = getelementptr inbounds nuw i8, ptr %0, i64 4
  %10 = load i32, ptr %9, align 4, !tbaa !16
  %11 = getelementptr inbounds nuw i8, ptr %0, i64 16
  %12 = load ptr, ptr %11, align 8, !tbaa !52
  %13 = getelementptr inbounds nuw i8, ptr %12, i64 16
  %14 = getelementptr inbounds nuw i8, ptr %12, i64 24
  %15 = getelementptr inbounds nuw i8, ptr %3, i64 8
  %16 = load ptr, ptr %15, align 8, !tbaa !62
  %17 = getelementptr inbounds nuw i8, ptr %16, i64 24
  %18 = load ptr, ptr %17, align 8, !tbaa !68
  %19 = getelementptr inbounds nuw i8, ptr %16, i64 44
  %20 = load i32, ptr %19, align 4, !tbaa !69
  %21 = mul nsw i32 %20, %10
  %22 = add nsw i32 %21, %8
  %23 = shl nsw i32 %22, 3
  %24 = sext i32 %23 to i64
  %25 = getelementptr inbounds i8, ptr %18, i64 %24
  %26 = getelementptr inbounds nuw i8, ptr %16, i64 32
  %27 = load ptr, ptr %26, align 8, !tbaa !70
  %28 = getelementptr inbounds i8, ptr %27, i64 %24
  %29 = getelementptr inbounds nuw i8, ptr %16, i64 8
  %30 = load i32, ptr %29, align 8, !tbaa !71
  %31 = shl nsw i32 %8, 4
  %32 = sub nsw i32 %30, %31
  %33 = getelementptr inbounds nuw i8, ptr %16, i64 12
  %34 = load i32, ptr %33, align 4, !tbaa !72
  %35 = shl nsw i32 %10, 4
  %36 = sub nsw i32 %34, %35
  %spec.store.select = tail call i32 @llvm.smin.i32(i32 %32, i32 16)
  %spec.store.select1 = tail call i32 @llvm.smin.i32(i32 %36, i32 16)
  %37 = icmp sgt i32 %36, 0
  br i1 %37, label %.lr.ph.i, label %ExportBlock.exit

.lr.ph.i:                                         ; preds = %7
  %38 = getelementptr inbounds nuw i8, ptr %16, i64 16
  %39 = load ptr, ptr %38, align 8, !tbaa !66
  %40 = getelementptr inbounds nuw i8, ptr %16, i64 40
  %41 = load i32, ptr %40, align 8, !tbaa !67
  %42 = mul nsw i32 %41, %10
  %43 = add nsw i32 %42, %8
  %44 = shl nsw i32 %43, 4
  %45 = sext i32 %44 to i64
  %46 = getelementptr inbounds i8, ptr %39, i64 %45
  %47 = sext i32 %spec.store.select to i64
  %48 = sext i32 %41 to i64
  br label %49

49:                                               ; preds = %49, %.lr.ph.i
  %.010.i = phi i32 [ %spec.store.select1, %.lr.ph.i ], [ %50, %49 ]
  %.069.i = phi ptr [ %12, %.lr.ph.i ], [ %52, %49 ]
  %.078.i = phi ptr [ %46, %.lr.ph.i ], [ %51, %49 ]
  %50 = add nsw i32 %.010.i, -1
  tail call void @llvm.memcpy.p0.p0.i64(ptr align 1 %.078.i, ptr align 1 %.069.i, i64 %47, i1 false)
  %51 = getelementptr inbounds i8, ptr %.078.i, i64 %48
  %52 = getelementptr inbounds nuw i8, ptr %.069.i, i64 32
  %53 = icmp samesign ugt i32 %.010.i, 1
  br i1 %53, label %49, label %ExportBlock.exit, !llvm.loop !82

ExportBlock.exit:                                 ; preds = %49, %7
  %54 = add nsw i32 %spec.store.select1, 1
  %55 = ashr i32 %54, 1
  %56 = icmp sgt i32 %55, 0
  br i1 %56, label %.lr.ph.i43, label %ExportBlock.exit52

.lr.ph.i43:                                       ; preds = %ExportBlock.exit
  %57 = add nsw i32 %spec.store.select, 1
  %58 = ashr i32 %57, 1
  %59 = load i32, ptr %19, align 4, !tbaa !69
  %60 = sext i32 %58 to i64
  %61 = sext i32 %59 to i64
  br label %62

62:                                               ; preds = %62, %.lr.ph.i43
  %.010.i44 = phi i32 [ %55, %.lr.ph.i43 ], [ %63, %62 ]
  %.069.i45 = phi ptr [ %13, %.lr.ph.i43 ], [ %65, %62 ]
  %.078.i46 = phi ptr [ %25, %.lr.ph.i43 ], [ %64, %62 ]
  %63 = add nsw i32 %.010.i44, -1
  tail call void @llvm.memcpy.p0.p0.i64(ptr align 1 %.078.i46, ptr nonnull align 1 %.069.i45, i64 %60, i1 false)
  %64 = getelementptr inbounds i8, ptr %.078.i46, i64 %61
  %65 = getelementptr inbounds nuw i8, ptr %.069.i45, i64 32
  %66 = icmp samesign ugt i32 %.010.i44, 1
  br i1 %66, label %62, label %.lr.ph.i48, !llvm.loop !82

.lr.ph.i48:                                       ; preds = %62
  %67 = load i32, ptr %19, align 4, !tbaa !69
  %68 = sext i32 %67 to i64
  br label %69

69:                                               ; preds = %69, %.lr.ph.i48
  %.010.i49 = phi i32 [ %55, %.lr.ph.i48 ], [ %70, %69 ]
  %.069.i50 = phi ptr [ %14, %.lr.ph.i48 ], [ %72, %69 ]
  %.078.i51 = phi ptr [ %28, %.lr.ph.i48 ], [ %71, %69 ]
  %70 = add nsw i32 %.010.i49, -1
  tail call void @llvm.memcpy.p0.p0.i64(ptr align 1 %.078.i51, ptr nonnull align 1 %.069.i50, i64 %60, i1 false)
  %71 = getelementptr inbounds i8, ptr %.078.i51, i64 %68
  %72 = getelementptr inbounds nuw i8, ptr %.069.i50, i64 32
  %73 = icmp samesign ugt i32 %.010.i49, 1
  br i1 %73, label %69, label %ExportBlock.exit52, !llvm.loop !82

ExportBlock.exit52:                               ; preds = %69, %ExportBlock.exit, %1
  ret void
}